target datalayout = "e-m:e-p270:32:32-p271:32:32-p272:64:64-i64:64-i128:128-f80:128-n8:16:32:64-S128"
target triple = "x86_64-pc-linux-gnu"

; Function Attrs: alwaysinline nounwind willreturn memory(none) uwtable
define internal zeroext i16 @av_bswap16(i16 noundef zeroext %0) #7 {
  %2 = alloca i16, align 2
  store i16 %0, ptr %2, align 2, !tbaa !62
  %3 = load i16, ptr %2, align 2, !tbaa !62
  %4 = zext i16 %3 to i32
  %5 = ashr i32 %4, 8
  %6 = load i16, ptr %2, align 2, !tbaa !62
  %7 = zext i16 %6 to i32
  %8 = shl i32 %7, 8
  %9 = or i32 %5, %8
  %10 = trunc i32 %9 to i16
  store i16 %10, ptr %2, align 2, !tbaa !62
  %11 = load i16, ptr %2, align 2, !tbaa !62
  ret i16 %11
}

; Function Attrs: nounwind uwtable
define internal void @bayer_rggb16be_to_rgb24_copy(ptr noundef %0, i32 noundef %1, ptr noundef %2, i32 noundef %3, i32 noundef %4) #0 {
  %6 = alloca ptr, align 8
  %7 = alloca i32, align 4
  %8 = alloca ptr, align 8
  %9 = alloca i32, align 4
  %10 = alloca i32, align 4
  %11 = alloca i32, align 4
  store ptr %0, ptr %6, align 8, !tbaa !4
  store i32 %1, ptr %7, align 4, !tbaa !9
  store ptr %2, ptr %8, align 8, !tbaa !4
  store i32 %3, ptr %9, align 4, !tbaa !9
  store i32 %4, ptr %10, align 4, !tbaa !9
  call void @llvm.lifetime.start.p0(i64 4, ptr %11) #11
  store i32 0, ptr %11, align 4, !tbaa !9
  br label %12

12:                                               ; preds = %170, %5
  %13 = load i32, ptr %11, align 4, !tbaa !9
  %14 = load i32, ptr %10, align 4, !tbaa !9
  %15 = icmp slt i32 %13, %14
  br i1 %15, label %16, label %173

16:                                               ; preds = %12
  %17 = load ptr, ptr %6, align 8, !tbaa !4
  %18 = load i32, ptr %7, align 4, !tbaa !9
  %19 = mul nsw i32 1, %18
  %20 = add nsw i32 %19, 2
  %21 = sext i32 %20 to i64
  %22 = getelementptr inbounds i8, ptr %17, i64 %21
  %23 = load i16, ptr %22, align 1, !tbaa !67
  %24 = call zeroext i16 @av_bswap16(i16 noundef zeroext %23) #13
  %25 = zext i16 %24 to i32
  %26 = ashr i32 %25, 8
  %27 = trunc i32 %26 to i8
  %28 = load ptr, ptr %8, align 8, !tbaa !4
  %29 = load i32, ptr %9, align 4, !tbaa !9
  %30 = mul nsw i32 1, %29
  %31 = add nsw i32 %30, 0
  %32 = add nsw i32 %31, 2
  %33 = sext i32 %32 to i64
  %34 = getelementptr inbounds i8, ptr %28, i64 %33
  store i8 %27, ptr %34, align 1, !tbaa !67
  %35 = load ptr, ptr %8, align 8, !tbaa !4
  %36 = load i32, ptr %9, align 4, !tbaa !9
  %37 = mul nsw i32 1, %36
  %38 = add nsw i32 %37, 3
  %39 = add nsw i32 %38, 2
  %40 = sext i32 %39 to i64
  %41 = getelementptr inbounds i8, ptr %35, i64 %40
  store i8 %27, ptr %41, align 1, !tbaa !67
  %42 = load ptr, ptr %8, align 8, !tbaa !4
  %43 = load i32, ptr %9, align 4, !tbaa !9
  %44 = mul nsw i32 0, %43
  %45 = add nsw i32 %44, 3
  %46 = add nsw i32 %45, 2
  %47 = sext i32 %46 to i64
  %48 = getelementptr inbounds i8, ptr %42, i64 %47
  store i8 %27, ptr %48, align 1, !tbaa !67
  %49 = load ptr, ptr %8, align 8, !tbaa !4
  %50 = load i32, ptr %9, align 4, !tbaa !9
  %51 = mul nsw i32 0, %50
  %52 = add nsw i32 %51, 0
  %53 = add nsw i32 %52, 2
  %54 = sext i32 %53 to i64
  %55 = getelementptr inbounds i8, ptr %49, i64 %54
  store i8 %27, ptr %55, align 1, !tbaa !67
  %56 = load ptr, ptr %6, align 8, !tbaa !4
  %57 = load i32, ptr %7, align 4, !tbaa !9
  %58 = mul nsw i32 0, %57
  %59 = add nsw i32 %58, 2
  %60 = sext i32 %59 to i64
  %61 = getelementptr inbounds i8, ptr %56, i64 %60
  %62 = load i16, ptr %61, align 1, !tbaa !67
  %63 = call zeroext i16 @av_bswap16(i16 noundef zeroext %62) #13
  %64 = zext i16 %63 to i32
  %65 = ashr i32 %64, 8
  %66 = trunc i32 %65 to i8
  %67 = load ptr, ptr %8, align 8, !tbaa !4
  %68 = load i32, ptr %9, align 4, !tbaa !9
  %69 = mul nsw i32 0, %68
  %70 = add nsw i32 %69, 3
  %71 = add nsw i32 %70, 1
  %72 = sext i32 %71 to i64
  %73 = getelementptr inbounds i8, ptr %67, i64 %72
  store i8 %66, ptr %73, align 1, !tbaa !67
  %74 = load ptr, ptr %6, align 8, !tbaa !4
  %75 = load i32, ptr %7, align 4, !tbaa !9
  %76 = mul nsw i32 0, %75
  %77 = add nsw i32 %76, 2
  %78 = sext i32 %77 to i64
  %79 = getelementptr inbounds i8, ptr %74, i64 %78
  %80 = load i16, ptr %79, align 1, !tbaa !67
  %81 = call zeroext i16 @av_bswap16(i16 noundef zeroext %80) #13
  %82 = zext i16 %81 to i32
  %83 = load ptr, ptr %6, align 8, !tbaa !4
  %84 = load i32, ptr %7, align 4, !tbaa !9
  %85 = mul nsw i32 1, %84
  %86 = add nsw i32 %85, 0
  %87 = sext i32 %86 to i64
  %88 = getelementptr inbounds i8, ptr %83, i64 %87
  %89 = load i16, ptr %88, align 1, !tbaa !67
  %90 = call zeroext i16 @av_bswap16(i16 noundef zeroext %89) #13
  %91 = zext i16 %90 to i32
  %92 = add i32 %82, %91
  %93 = lshr i32 %92, 9
  %94 = trunc i32 %93 to i8
  %95 = load ptr, ptr %8, align 8, !tbaa !4
  %96 = load i32, ptr %9, align 4, !tbaa !9
  %97 = mul nsw i32 1, %96
  %98 = add nsw i32 %97, 3
  %99 = add nsw i32 %98, 1
  %100 = sext i32 %99 to i64
  %101 = getelementptr inbounds i8, ptr %95, i64 %100
  store i8 %94, ptr %101, align 1, !tbaa !67
  %102 = load ptr, ptr %8, align 8, !tbaa !4
  %103 = load i32, ptr %9, align 4, !tbaa !9
  %104 = mul nsw i32 0, %103
  %105 = add nsw i32 %104, 0
  %106 = add nsw i32 %105, 1
  %107 = sext i32 %106 to i64
  %108 = getelementptr inbounds i8, ptr %102, i64 %107
  store i8 %94, ptr %108, align 1, !tbaa !67
  %109 = load ptr, ptr %6, align 8, !tbaa !4
  %110 = load i32, ptr %7, align 4, !tbaa !9
  %111 = mul nsw i32 1, %110
  %112 = add nsw i32 %111, 0
  %113 = sext i32 %112 to i64
  %114 = getelementptr inbounds i8, ptr %109, i64 %113
  %115 = load i16, ptr %114, align 1, !tbaa !67
  %116 = call zeroext i16 @av_bswap16(i16 noundef zeroext %115) #13
  %117 = zext i16 %116 to i32
  %118 = ashr i32 %117, 8
  %119 = trunc i32 %118 to i8
  %120 = load ptr, ptr %8, align 8, !tbaa !4
  %121 = load i32, ptr %9, align 4, !tbaa !9
  %122 = mul nsw i32 1, %121
  %123 = add nsw i32 %122, 0
  %124 = add nsw i32 %123, 1
  %125 = sext i32 %124 to i64
  %126 = getelementptr inbounds i8, ptr %120, i64 %125
  store i8 %119, ptr %126, align 1, !tbaa !67
  %127 = load ptr, ptr %6, align 8, !tbaa !4
  %128 = load i32, ptr %7, align 4, !tbaa !9
  %129 = mul nsw i32 0, %128
  %130 = add nsw i32 %129, 0
  %131 = sext i32 %130 to i64
  %132 = getelementptr inbounds i8, ptr %127, i64 %131
  %133 = load i16, ptr %132, align 1, !tbaa !67
  %134 = call zeroext i16 @av_bswap16(i16 noundef zeroext %133) #13
  %135 = zext i16 %134 to i32
  %136 = ashr i32 %135, 8
  %137 = trunc i32 %136 to i8
  %138 = load ptr, ptr %8, align 8, !tbaa !4
  %139 = load i32, ptr %9, align 4, !tbaa !9
  %140 = mul nsw i32 1, %139
  %141 = add nsw i32 %140, 0
  %142 = add nsw i32 %141, 0
  %143 = sext i32 %142 to i64
  %144 = getelementptr inbounds i8, ptr %138, i64 %143
  store i8 %137, ptr %144, align 1, !tbaa !67
  %145 = load ptr, ptr %8, align 8, !tbaa !4
  %146 = load i32, ptr %9, align 4, !tbaa !9
  %147 = mul nsw i32 0, %146
  %148 = add nsw i32 %147, 3
  %149 = add nsw i32 %148, 0
  %150 = sext i32 %149 to i64
  %151 = getelementptr inbounds i8, ptr %145, i64 %150
  store i8 %137, ptr %151, align 1, !tbaa !67
  %152 = load ptr, ptr %8, align 8, !tbaa !4
  %153 = load i32, ptr %9, align 4, !tbaa !9
  %154 = mul nsw i32 0, %153
  %155 = add nsw i32 %154, 0
  %156 = add nsw i32 %155, 0
  %157 = sext i32 %156 to i64
  %158 = getelementptr inbounds i8, ptr %152, i64 %157
  store i8 %137, ptr %158, align 1, !tbaa !67
  %159 = load ptr, ptr %8, align 8, !tbaa !4
  %160 = load i32, ptr %9, align 4, !tbaa !9
  %161 = mul nsw i32 1, %160
  %162 = add nsw i32 %161, 3
  %163 = add nsw i32 %162, 0
  %164 = sext i32 %163 to i64
  %165 = getelementptr inbounds i8, ptr %159, i64 %164
  store i8 %137, ptr %165, align 1, !tbaa !67
  %166 = load ptr, ptr %6, align 8, !tbaa !4
  %167 = getelementptr inbounds i8, ptr %166, i64 4
  store ptr %167, ptr %6, align 8, !tbaa !4
  %168 = load ptr, ptr %8, align 8, !tbaa !4
  %169 = getelementptr inbounds i8, ptr %168, i64 6
  store ptr %169, ptr %8, align 8, !tbaa !4
  br label %170

170:                                              ; preds = %16
  %171 = load i32, ptr %11, align 4, !tbaa !9
  %172 = add nsw i32 %171, 2
  store i32 %172, ptr %11, align 4, !tbaa !9
  br label %12, !llvm.loop !254

173:                                              ; preds = %12
  call void @llvm.lifetime.end.p0(i64 4, ptr %11) #11
  ret void
}