; Function Attrs: nofree norecurse nosync nounwind memory(argmem: readwrite) uwtable
define internal void @bayer_rggb16be_to_rgb24_copy(ptr noundef readonly captures(none) %0, i32 noundef %1, ptr noundef writeonly captures(none) %2, i32 noundef %3, i32 noundef %4) unnamed_addr #0 {
  %6 = icmp sgt i32 %4, 0
  br i1 %6, label %.lr.ph, label %._crit_edge

.lr.ph:                                           ; preds = %5
  %7 = sext i32 %1 to i64
  %8 = sext i32 %3 to i64
  br label %9

9:                                                ; preds = %.lr.ph, %9
  %.044 = phi i32 [ 0, %.lr.ph ], [ %43, %9 ]
  %.04043 = phi ptr [ %0, %.lr.ph ], [ %41, %9 ]
  %.04142 = phi ptr [ %2, %.lr.ph ], [ %42, %9 ]
  %10 = getelementptr i8, ptr %.04043, i64 %7
  %11 = getelementptr i8, ptr %10, i64 2
  %12 = load i16, ptr %11, align 1, !tbaa !61
  %13 = trunc i16 %12 to i8
  %14 = getelementptr i8, ptr %.04142, i64 %8
  %15 = getelementptr i8, ptr %14, i64 2
  store i8 %13, ptr %15, align 1, !tbaa !61
  %16 = getelementptr i8, ptr %14, i64 5
  store i8 %13, ptr %16, align 1, !tbaa !61
  %17 = getelementptr inbounds nuw i8, ptr %.04142, i64 5
  store i8 %13, ptr %17, align 1, !tbaa !61
  %18 = getelementptr inbounds nuw i8, ptr %.04142, i64 2
  store i8 %13, ptr %18, align 1, !tbaa !61
  %19 = getelementptr inbounds nuw i8, ptr %.04043, i64 2
  %20 = load i16, ptr %19, align 1, !tbaa !61
  %21 = trunc i16 %20 to i8
  %22 = getelementptr inbounds nuw i8, ptr %.04142, i64 4
  store i8 %21, ptr %22, align 1, !tbaa !61
  %23 = load i16, ptr %19, align 1, !tbaa !61
  %24 = tail call i16 @llvm.bswap.i16(i16 %23)
  %25 = zext i16 %24 to i32
  %26 = load i16, ptr %10, align 1, !tbaa !61
  %27 = tail call i16 @llvm.bswap.i16(i16 %26)
  %28 = zext i16 %27 to i32
  %29 = add nuw nsw i32 %28, %25
  %30 = lshr i32 %29, 9
  %31 = trunc nuw i32 %30 to i8
  %32 = getelementptr i8, ptr %14, i64 4
  store i8 %31, ptr %32, align 1, !tbaa !61
  %33 = getelementptr inbounds nuw i8, ptr %.04142, i64 1
  store i8 %31, ptr %33, align 1, !tbaa !61
  %34 = load i16, ptr %10, align 1, !tbaa !61
  %35 = trunc i16 %34 to i8
  %36 = getelementptr i8, ptr %14, i64 1
  store i8 %35, ptr %36, align 1, !tbaa !61
  %37 = load i16, ptr %.04043, align 1, !tbaa !61
  %38 = trunc i16 %37 to i8
  store i8 %38, ptr %14, align 1, !tbaa !61
  %39 = getelementptr inbounds nuw i8, ptr %.04142, i64 3
  store i8 %38, ptr %39, align 1, !tbaa !61
  store i8 %38, ptr %.04142, align 1, !tbaa !61
  %40 = getelementptr i8, ptr %14, i64 3
  store i8 %38, ptr %40, align 1, !tbaa !61
  %41 = getelementptr inbounds nuw i8, ptr %.04043, i64 4
  %42 = getelementptr inbounds nuw i8, ptr %.04142, i64 6
  %43 = add nuw nsw i32 %.044, 2
  %44 = icmp slt i32 %43, %4
  br i1 %44, label %9, label %._crit_edge, !llvm.loop !246

._crit_edge:                                      ; preds = %9, %5
  ret void
}